; Function Attrs: mustprogress nounwind uwtable
define void @_ZN3spv10spirvbin_t13stripDeadRefsEv(ptr noundef nonnull align 8 dereferenceable(473) %0) local_unnamed_addr #0 align 2 {
  %2 = alloca %"class.std::function.79", align 8
  %3 = alloca %"class.std::function.82", align 8
  %4 = getelementptr inbounds i8, ptr %2, i64 16
  %5 = getelementptr inbounds i8, ptr %2, i64 24
  %6 = getelementptr inbounds i8, ptr %2, i64 8
  store i64 0, ptr %6, align 8
  %7 = ptrtoint ptr %0 to i64
  store i64 %7, ptr %2, align 8
  store ptr @"_ZNSt17_Function_handlerIFbN3spv2OpEjEZNS0_10spirvbin_t13stripDeadRefsEvE3$_0E9_M_invokeERKSt9_Any_dataOS1_Oj", ptr %5, align 8
  store ptr @"_ZNSt17_Function_handlerIFbN3spv2OpEjEZNS0_10spirvbin_t13stripDeadRefsEvE3$_0E10_M_managerERSt9_Any_dataRKS6_St18_Manager_operation", ptr %4, align 8
  %8 = getelementptr inbounds i8, ptr %3, i64 16
  %9 = getelementptr inbounds i8, ptr %3, i64 24
  call void @llvm.memset.p0.i64(ptr noundef nonnull align 8 dereferenceable(16) %3, i8 0, i64 16, i1 false)
  store ptr @"_ZNSt17_Function_handlerIFvRjEN3spv3$_5EE9_M_invokeERKSt9_Any_dataS0_", ptr %9, align 8
  store ptr @"_ZNSt17_Function_handlerIFvRjEN3spv3$_5EE10_M_managerERSt9_Any_dataRKS5_St18_Manager_operation", ptr %8, align 8
  %10 = call noundef nonnull align 8 dereferenceable(473) ptr @_ZN3spv10spirvbin_t7processESt8functionIFbNS_2OpEjEES1_IFvRjEEjj(ptr noundef nonnull align 8 dereferenceable(473) %0, ptr noundef nonnull %2, ptr noundef nonnull %3, i32 noundef 0, i32 noundef 0)
  %11 = load ptr, ptr %8, align 8
  %.not.i.i = icmp eq ptr %11, null
  br i1 %.not.i.i, label %_ZNSt8functionIFvRjEED2Ev.exit, label %12

12:                                               ; preds = %1
  %13 = call noundef zeroext i1 %11(ptr noundef nonnull align 8 dereferenceable(16) %3, ptr noundef nonnull align 8 dereferenceable(16) %3, i32 noundef 3) #24
  br label %_ZNSt8functionIFvRjEED2Ev.exit

_ZNSt8functionIFvRjEED2Ev.exit:                   ; preds = %1, %12
  %14 = load ptr, ptr %4, align 8
  %.not.i.i1 = icmp eq ptr %14, null
  br i1 %.not.i.i1, label %_ZNSt8functionIFbN3spv2OpEjEED2Ev.exit, label %15

15:                                               ; preds = %_ZNSt8functionIFvRjEED2Ev.exit
  %16 = call noundef zeroext i1 %14(ptr noundef nonnull align 8 dereferenceable(16) %2, ptr noundef nonnull align 8 dereferenceable(16) %2, i32 noundef 3) #24
  br label %_ZNSt8functionIFbN3spv2OpEjEED2Ev.exit

_ZNSt8functionIFbN3spv2OpEjEED2Ev.exit:           ; preds = %_ZNSt8functionIFvRjEED2Ev.exit, %15
  call void @_ZN3spv10spirvbin_t5stripEv(ptr noundef nonnull align 8 dereferenceable(473) %0)
  ret void
}